; Function Attrs: mustprogress uwtable
define dso_local noundef zeroext i1 @_ZNK4i18n12phonenumbers15PhoneNumberUtil29HasFormattingPatternForNumberERKNS0_11PhoneNumberE(ptr nocapture noundef nonnull readonly align 8 dereferenceable(64) %0, ptr nocapture noundef nonnull readonly align 8 dereferenceable(72) %1) local_unnamed_addr #4 align 2 personality ptr @__gxx_personality_v0 {
  %3 = alloca %"class.std::__cxx11::basic_string", align 8
  %4 = alloca %"class.std::__cxx11::basic_string", align 8
  %5 = getelementptr inbounds i8, ptr %1, i64 56
  %6 = load i32, ptr %5, align 8
  call void @_ZNSt7__cxx1112basic_stringIcSt11char_traitsIcESaIcEEC1Ev(ptr noundef nonnull align 8 dereferenceable(32) %3) #26
  invoke void @_ZNK4i18n12phonenumbers15PhoneNumberUtil27GetRegionCodeForCountryCodeEiPNSt7__cxx1112basic_stringIcSt11char_traitsIcESaIcEEE(ptr noundef nonnull align 8 dereferenceable(64) %0, i32 noundef %6, ptr noundef nonnull %3)
          to label %7 unwind label %10

7:                                                ; preds = %2
  %8 = invoke noundef ptr @_ZNK4i18n12phonenumbers15PhoneNumberUtil33GetMetadataForRegionOrCallingCodeEiRKNSt7__cxx1112basic_stringIcSt11char_traitsIcESaIcEEE(ptr noundef nonnull align 8 dereferenceable(64) %0, i32 noundef %6, ptr noundef nonnull align 8 dereferenceable(32) %3)
          to label %9 unwind label %10

9:                                                ; preds = %7
  %.not = icmp eq ptr %8, null
  br i1 %.not, label %20, label %12

10:                                               ; preds = %7, %2
  %11 = landingpad { ptr, i32 }
          cleanup
  br label %21

12:                                               ; preds = %9
  call void @_ZNSt7__cxx1112basic_stringIcSt11char_traitsIcESaIcEEC1Ev(ptr noundef nonnull align 8 dereferenceable(32) %4) #26
  invoke void @_ZNK4i18n12phonenumbers15PhoneNumberUtil28GetNationalSignificantNumberERKNS0_11PhoneNumberEPNSt7__cxx1112basic_stringIcSt11char_traitsIcESaIcEEE(ptr nonnull align 8 poison, ptr noundef nonnull align 8 dereferenceable(72) %1, ptr noundef nonnull %4)
          to label %13 unwind label %18

13:                                               ; preds = %12
  %14 = getelementptr inbounds i8, ptr %8, i64 24
  %15 = invoke noundef ptr @_ZNK4i18n12phonenumbers15PhoneNumberUtil32ChooseFormattingPatternForNumberERKN6google8protobuf16RepeatedPtrFieldINS0_12NumberFormatEEERKNSt7__cxx1112basic_stringIcSt11char_traitsIcESaIcEEE(ptr noundef nonnull align 8 dereferenceable(64) %0, ptr noundef nonnull align 8 dereferenceable(24) %14, ptr noundef nonnull align 8 dereferenceable(32) %4)
          to label %16 unwind label %18

16:                                               ; preds = %13
  %17 = icmp ne ptr %15, null
  call void @_ZNSt7__cxx1112basic_stringIcSt11char_traitsIcESaIcEED1Ev(ptr noundef nonnull align 8 dereferenceable(32) %4) #26
  br label %20

18:                                               ; preds = %13, %12
  %19 = landingpad { ptr, i32 }
          cleanup
  call void @_ZNSt7__cxx1112basic_stringIcSt11char_traitsIcESaIcEED1Ev(ptr noundef nonnull align 8 dereferenceable(32) %4) #26
  br label %21

20:                                               ; preds = %9, %16
  %.0 = phi i1 [ %17, %16 ], [ false, %9 ]
  call void @_ZNSt7__cxx1112basic_stringIcSt11char_traitsIcESaIcEED1Ev(ptr noundef nonnull align 8 dereferenceable(32) %3) #26
  ret i1 %.0

21:                                               ; preds = %18, %10
  %.pn = phi { ptr, i32 } [ %19, %18 ], [ %11, %10 ]
  call void @_ZNSt7__cxx1112basic_stringIcSt11char_traitsIcESaIcEED1Ev(ptr noundef nonnull align 8 dereferenceable(32) %3) #26
  resume { ptr, i32 } %.pn
}